; Function Attrs: mustprogress nounwind uwtable
define dso_local void @_ZN4llvm17PredicateExpander17expandCheckPseudoERNS_11raw_ostreamERKSt6vectorIPNS_6RecordESaIS5_EE(ptr nocapture noundef nonnull align 8 dereferenceable(24) %0, ptr noundef nonnull align 8 dereferenceable(48) %1, ptr nocapture noundef nonnull readonly align 8 dereferenceable(24) %2) local_unnamed_addr #0 align 2 {
  %4 = getelementptr inbounds nuw i8, ptr %0, i64 2
  %5 = load i8, ptr %4, align 2
  %6 = trunc i8 %5 to i1
  br i1 %6, label %7, label %21

7:                                                ; preds = %3
  %8 = getelementptr inbounds nuw i8, ptr %1, i64 24
  %9 = load ptr, ptr %8, align 8
  %10 = getelementptr inbounds nuw i8, ptr %1, i64 32
  %11 = load ptr, ptr %10, align 8
  %12 = ptrtoint ptr %9 to i64
  %13 = ptrtoint ptr %11 to i64
  %14 = sub i64 %12, %13
  %15 = icmp ult i64 %14, 5
  br i1 %15, label %16, label %18

16:                                               ; preds = %7
  %17 = tail call noundef nonnull align 8 dereferenceable(48) ptr @_ZN4llvm11raw_ostream5writeEPKcm(ptr noundef nonnull align 8 dereferenceable(48) %1, ptr noundef nonnull @.str.1, i64 noundef 5) #10
  br label %_ZN4llvm17PredicateExpander11expandFalseERNS_11raw_ostreamE.exit

18:                                               ; preds = %7
  tail call void @llvm.memcpy.p0.p0.i64(ptr noundef nonnull align 1 dereferenceable(5) %11, ptr noundef nonnull align 1 dereferenceable(5) @.str.1, i64 5, i1 false)
  %19 = load ptr, ptr %10, align 8
  %20 = getelementptr inbounds i8, ptr %19, i64 5
  store ptr %20, ptr %10, align 8
  br label %_ZN4llvm17PredicateExpander11expandFalseERNS_11raw_ostreamE.exit

21:                                               ; preds = %3
  tail call void @_ZN4llvm17PredicateExpander17expandCheckOpcodeERNS_11raw_ostreamERKSt6vectorIPNS_6RecordESaIS5_EE(ptr noundef nonnull align 8 dereferenceable(24) %0, ptr noundef nonnull align 8 dereferenceable(48) %1, ptr noundef nonnull align 8 dereferenceable(24) %2)
  br label %_ZN4llvm17PredicateExpander11expandFalseERNS_11raw_ostreamE.exit

_ZN4llvm17PredicateExpander11expandFalseERNS_11raw_ostreamE.exit: ; preds = %18, %16, %21
  ret void
}